target datalayout = "e-m:e-p270:32:32-p271:32:32-p272:64:64-i64:64-i128:128-f80:128-n8:16:32:64-S128"
target triple = "x86_64-pc-linux-gnu"

%struct.png_struct_def = type { [1 x %struct.__jmp_buf_tag], ptr, ptr, i64, ptr, ptr, ptr, ptr, ptr, ptr, ptr, ptr, ptr, i8, i8, i32, i32, i32, i32, %struct.z_stream_s, ptr, i32, i32, i32, i32, i32, i32, i32, i32, i32, i32, i32, i32, i32, i32, i32, i32, i32, i32, i32, i32, i32, i64, i32, i32, i32, ptr, ptr, ptr, ptr, i64, i32, i32, ptr, i16, i32, i16, i8, i8, i8, i8, i8, i8, i8, i8, i8, i8, i8, i8, i8, i8, i8, i16, i8, i32, %struct.png_color_16_struct, %struct.png_color_16_struct, ptr, i32, i32, %struct.png_xy, i32, i32, i32, i32, i32, ptr, ptr, ptr, ptr, ptr, ptr, %struct.png_color_8_struct, %struct.png_color_8_struct, ptr, %struct.png_color_16_struct, ptr, ptr, ptr, ptr, ptr, ptr, ptr, ptr, ptr, i32, i32, i64, i64, i64, i64, i32, i32, ptr, ptr, i32, [29 x i8], i32, ptr, ptr, i32, i32, ptr, i8, i8, i16, i16, ptr, i32, i8, ptr, ptr, ptr, ptr, ptr, ptr, ptr, i8, i32, i32, i32, i64, %struct.png_unknown_chunk_t, i64, ptr, i64, i32, i32, ptr, [4 x ptr] }
%struct.__jmp_buf_tag = type { [8 x i64], i32, %struct.__sigset_t }
%struct.__sigset_t = type { [16 x i64] }
%struct.z_stream_s = type { ptr, i32, i64, ptr, i32, i64, ptr, ptr, ptr, ptr, ptr, i32, i64, i64 }
%struct.png_xy = type { i32, i32, i32, i32, i32, i32, i32, i32 }
%struct.png_color_8_struct = type { i8, i8, i8, i8, i8 }
%struct.png_color_16_struct = type { i8, i16, i16, i16, i16 }
%struct.png_unknown_chunk_t = type { [5 x i8], ptr, i64, i8 }
%struct.png_info_def = type { i32, i32, i32, i64, ptr, i16, i16, i8, i8, i8, i8, i8, i8, i8, i8, [8 x i8], i8, i8, i8, i8, ptr, ptr, i32, i32, i32, i16, i16, i16, i16, i16, i16, i16, i16, i32, i32, i32, i32, ptr, %struct.png_time_struct, %struct.png_color_8_struct, ptr, %struct.png_color_16_struct, %struct.png_color_16_struct, i32, i32, i8, i32, i32, i8, i32, ptr, ptr, ptr, i32, i32, ptr, ptr, i8, i8, i32, ptr, i32, ptr, i32, i8, ptr, ptr, ptr, %struct.png_xy, i32, i32 }
%struct.png_time_struct = type { i16, i8, i8, i8, i8, i8 }

@.str.1 = private unnamed_addr constant [15 x i8] c"Not a PNG file\00", align 1
@.str.2 = private unnamed_addr constant [39 x i8] c"PNG file corrupted by ASCII conversion\00", align 1

; Function Attrs: nounwind uwtable
define void @png_read_sig(ptr noalias noundef %0, ptr noalias noundef %1) #0 {
  %3 = alloca ptr, align 8
  %4 = alloca ptr, align 8
  %5 = alloca i64, align 8
  %6 = alloca i64, align 8
  %7 = alloca i32, align 4
  store ptr %0, ptr %3, align 8, !tbaa !3
  store ptr %1, ptr %4, align 8, !tbaa !13
  call void @llvm.lifetime.start.p0(i64 8, ptr %5) #7
  call void @llvm.lifetime.start.p0(i64 8, ptr %6) #7
  %8 = load ptr, ptr %3, align 8, !tbaa !3
  %9 = getelementptr inbounds nuw %struct.png_struct_def, ptr %8, i32 0, i32 68
  %10 = load i8, ptr %9, align 1, !tbaa !15
  %11 = zext i8 %10 to i32
  %12 = icmp sge i32 %11, 8
  br i1 %12, label %13, label %14

13:                                               ; preds = %2
  store i32 1, ptr %7, align 4
  br label %63

14:                                               ; preds = %2
  %15 = load ptr, ptr %3, align 8, !tbaa !3
  %16 = getelementptr inbounds nuw %struct.png_struct_def, ptr %15, i32 0, i32 68
  %17 = load i8, ptr %16, align 1, !tbaa !15
  %18 = zext i8 %17 to i64
  store i64 %18, ptr %5, align 8, !tbaa !29
  %19 = load i64, ptr %5, align 8, !tbaa !29
  %20 = sub i64 8, %19
  store i64 %20, ptr %6, align 8, !tbaa !29
  %21 = load ptr, ptr %3, align 8, !tbaa !3
  %22 = getelementptr inbounds nuw %struct.png_struct_def, ptr %21, i32 0, i32 147
  store i32 17, ptr %22, align 4, !tbaa !30
  %23 = load ptr, ptr %3, align 8, !tbaa !3
  %24 = load ptr, ptr %4, align 8, !tbaa !13
  %25 = getelementptr inbounds nuw %struct.png_info_def, ptr %24, i32 0, i32 15
  %26 = load i64, ptr %5, align 8, !tbaa !29
  %27 = getelementptr inbounds nuw [8 x i8], ptr %25, i64 0, i64 %26
  %28 = load i64, ptr %6, align 8, !tbaa !29
  call void @png_read_data(ptr noundef %23, ptr noundef %27, i64 noundef %28)
  %29 = load ptr, ptr %3, align 8, !tbaa !3
  %30 = getelementptr inbounds nuw %struct.png_struct_def, ptr %29, i32 0, i32 68
  store i8 8, ptr %30, align 1, !tbaa !15
  %31 = load ptr, ptr %4, align 8, !tbaa !13
  %32 = getelementptr inbounds nuw %struct.png_info_def, ptr %31, i32 0, i32 15
  %33 = getelementptr inbounds [8 x i8], ptr %32, i64 0, i64 0
  %34 = load i64, ptr %5, align 8, !tbaa !29
  %35 = load i64, ptr %6, align 8, !tbaa !29
  %36 = call i32 @png_sig_cmp(ptr noundef %33, i64 noundef %34, i64 noundef %35)
  %37 = icmp ne i32 %36, 0
  br i1 %37, label %38, label %54

38:                                               ; preds = %14
  %39 = load i64, ptr %5, align 8, !tbaa !29
  %40 = icmp ult i64 %39, 4
  br i1 %40, label %41, label %52

41:                                               ; preds = %38
  %42 = load ptr, ptr %4, align 8, !tbaa !13
  %43 = getelementptr inbounds nuw %struct.png_info_def, ptr %42, i32 0, i32 15
  %44 = getelementptr inbounds [8 x i8], ptr %43, i64 0, i64 0
  %45 = load i64, ptr %5, align 8, !tbaa !29
  %46 = load i64, ptr %6, align 8, !tbaa !29
  %47 = sub i64 %46, 4
  %48 = call i32 @png_sig_cmp(ptr noundef %44, i64 noundef %45, i64 noundef %47)
  %49 = icmp ne i32 %48, 0
  br i1 %49, label %50, label %52

50:                                               ; preds = %41
  %51 = load ptr, ptr %3, align 8, !tbaa !3
  call void @png_error(ptr noundef %51, ptr noundef @.str.1) #8
  unreachable

52:                                               ; preds = %41, %38
  %53 = load ptr, ptr %3, align 8, !tbaa !3
  call void @png_error(ptr noundef %53, ptr noundef @.str.2) #8
  unreachable

54:                                               ; preds = %14
  %55 = load i64, ptr %5, align 8, !tbaa !29
  %56 = icmp ult i64 %55, 3
  br i1 %56, label %57, label %62

57:                                               ; preds = %54
  %58 = load ptr, ptr %3, align 8, !tbaa !3
  %59 = getelementptr inbounds nuw %struct.png_struct_def, ptr %58, i32 0, i32 15
  %60 = load i32, ptr %59, align 4, !tbaa !31
  %61 = or i32 %60, 4096
  store i32 %61, ptr %59, align 4, !tbaa !31
  br label %62

62:                                               ; preds = %57, %54
  store i32 0, ptr %7, align 4
  br label %63

63:                                               ; preds = %62, %13
  call void @llvm.lifetime.end.p0(i64 8, ptr %6) #7
  call void @llvm.lifetime.end.p0(i64 8, ptr %5) #7
  %64 = load i32, ptr %7, align 4
  switch i32 %64, label %66 [
    i32 0, label %65
    i32 1, label %65
  ]

65:                                               ; preds = %63, %63
  ret void

66:                                               ; preds = %63
  unreachable
}